target datalayout = "e-m:e-p270:32:32-p271:32:32-p272:64:64-i64:64-i128:128-f80:128-n8:16:32:64-S128"
target triple = "x86_64-pc-linux-gnu"

%struct._stritem = type { ptr, ptr, ptr, i32, i32, i32, i16, i16, i8, i8, [0 x %union.anon] }
%union.anon = type { i64 }

@heads = internal global [256 x ptr] zeroinitializer, align 16
@tails = internal global [256 x ptr] zeroinitializer, align 16

; Function Attrs: nounwind uwtable
define dso_local void @do_item_unlinktail_q(ptr noundef %0) #0 {
  %2 = alloca ptr, align 8
  %3 = alloca ptr, align 8
  %4 = alloca ptr, align 8
  store ptr %0, ptr %2, align 8, !tbaa !16
  call void @llvm.lifetime.start.p0(i64 8, ptr %3) #9
  call void @llvm.lifetime.start.p0(i64 8, ptr %4) #9
  %5 = load ptr, ptr %2, align 8, !tbaa !16
  %6 = getelementptr inbounds nuw %struct._stritem, ptr %5, i32 0, i32 8
  %7 = load i8, ptr %6, align 8, !tbaa !30
  %8 = zext i8 %7 to i64
  %9 = getelementptr inbounds nuw [256 x ptr], ptr @heads, i64 0, i64 %8
  store ptr %9, ptr %3, align 8, !tbaa !70
  %10 = load ptr, ptr %2, align 8, !tbaa !16
  %11 = getelementptr inbounds nuw %struct._stritem, ptr %10, i32 0, i32 8
  %12 = load i8, ptr %11, align 8, !tbaa !30
  %13 = zext i8 %12 to i64
  %14 = getelementptr inbounds nuw [256 x ptr], ptr @tails, i64 0, i64 %13
  store ptr %14, ptr %4, align 8, !tbaa !70
  %15 = load ptr, ptr %3, align 8, !tbaa !70
  %16 = load ptr, ptr %15, align 8, !tbaa !16
  %17 = load ptr, ptr %2, align 8, !tbaa !16
  %18 = icmp eq ptr %16, %17
  br i1 %18, label %19, label %24

19:                                               ; preds = %1
  %20 = load ptr, ptr %2, align 8, !tbaa !16
  %21 = getelementptr inbounds nuw %struct._stritem, ptr %20, i32 0, i32 0
  %22 = load ptr, ptr %21, align 8, !tbaa !16
  %23 = load ptr, ptr %3, align 8, !tbaa !70
  store ptr %22, ptr %23, align 8, !tbaa !16
  br label %24

24:                                               ; preds = %19, %1
  %25 = load ptr, ptr %4, align 8, !tbaa !70
  %26 = load ptr, ptr %25, align 8, !tbaa !16
  %27 = load ptr, ptr %2, align 8, !tbaa !16
  %28 = icmp eq ptr %26, %27
  br i1 %28, label %29, label %34

29:                                               ; preds = %24
  %30 = load ptr, ptr %2, align 8, !tbaa !16
  %31 = getelementptr inbounds nuw %struct._stritem, ptr %30, i32 0, i32 1
  %32 = load ptr, ptr %31, align 8, !tbaa !16
  %33 = load ptr, ptr %4, align 8, !tbaa !70
  store ptr %32, ptr %33, align 8, !tbaa !16
  br label %34

34:                                               ; preds = %29, %24
  %35 = load ptr, ptr %2, align 8, !tbaa !16
  %36 = getelementptr inbounds nuw %struct._stritem, ptr %35, i32 0, i32 0
  %37 = load ptr, ptr %36, align 8, !tbaa !16
  %38 = icmp ne ptr %37, null
  br i1 %38, label %39, label %47

39:                                               ; preds = %34
  %40 = load ptr, ptr %2, align 8, !tbaa !16
  %41 = getelementptr inbounds nuw %struct._stritem, ptr %40, i32 0, i32 1
  %42 = load ptr, ptr %41, align 8, !tbaa !16
  %43 = load ptr, ptr %2, align 8, !tbaa !16
  %44 = getelementptr inbounds nuw %struct._stritem, ptr %43, i32 0, i32 0
  %45 = load ptr, ptr %44, align 8, !tbaa !16
  %46 = getelementptr inbounds nuw %struct._stritem, ptr %45, i32 0, i32 1
  store ptr %42, ptr %46, align 8, !tbaa !16
  br label %47

47:                                               ; preds = %39, %34
  %48 = load ptr, ptr %2, align 8, !tbaa !16
  %49 = getelementptr inbounds nuw %struct._stritem, ptr %48, i32 0, i32 1
  %50 = load ptr, ptr %49, align 8, !tbaa !16
  %51 = icmp ne ptr %50, null
  br i1 %51, label %52, label %60

52:                                               ; preds = %47
  %53 = load ptr, ptr %2, align 8, !tbaa !16
  %54 = getelementptr inbounds nuw %struct._stritem, ptr %53, i32 0, i32 0
  %55 = load ptr, ptr %54, align 8, !tbaa !16
  %56 = load ptr, ptr %2, align 8, !tbaa !16
  %57 = getelementptr inbounds nuw %struct._stritem, ptr %56, i32 0, i32 1
  %58 = load ptr, ptr %57, align 8, !tbaa !16
  %59 = getelementptr inbounds nuw %struct._stritem, ptr %58, i32 0, i32 0
  store ptr %55, ptr %59, align 8, !tbaa !16
  br label %60

60:                                               ; preds = %52, %47
  call void @llvm.lifetime.end.p0(i64 8, ptr %4) #9
  call void @llvm.lifetime.end.p0(i64 8, ptr %3) #9
  ret void
}