; Function Attrs: mustprogress nofree norecurse nosync nounwind willreturn memory(readwrite, inaccessiblemem: none) uwtable
define dso_local void @do_item_unlinktail_q(ptr noundef readonly captures(address) %0) local_unnamed_addr #9 {
  %2 = getelementptr inbounds nuw i8, ptr %0, i64 40
  %3 = load i8, ptr %2, align 8, !tbaa !30
  %4 = zext i8 %3 to i64
  %5 = getelementptr inbounds nuw [256 x ptr], ptr @heads, i64 0, i64 %4
  %6 = getelementptr inbounds nuw [256 x ptr], ptr @tails, i64 0, i64 %4
  %7 = load ptr, ptr %5, align 8, !tbaa !28
  %8 = icmp eq ptr %7, %0
  br i1 %8, label %9, label %11

9:                                                ; preds = %1
  %10 = load ptr, ptr %0, align 8, !tbaa !28
  store ptr %10, ptr %5, align 8, !tbaa !28
  br label %11

11:                                               ; preds = %9, %1
  %12 = load ptr, ptr %6, align 8, !tbaa !28
  %13 = icmp eq ptr %12, %0
  br i1 %13, label %14, label %17

14:                                               ; preds = %11
  %15 = getelementptr inbounds nuw i8, ptr %0, i64 8
  %16 = load ptr, ptr %15, align 8, !tbaa !28
  store ptr %16, ptr %6, align 8, !tbaa !28
  br label %17

17:                                               ; preds = %14, %11
  %18 = load ptr, ptr %0, align 8, !tbaa !28
  %.not = icmp eq ptr %18, null
  %.phi.trans.insert = getelementptr inbounds nuw i8, ptr %0, i64 8
  %.pre = load ptr, ptr %.phi.trans.insert, align 8, !tbaa !28
  br i1 %.not, label %._crit_edge, label %19

19:                                               ; preds = %17
  %20 = getelementptr inbounds nuw i8, ptr %18, i64 8
  store ptr %.pre, ptr %20, align 8, !tbaa !28
  br label %._crit_edge

._crit_edge:                                      ; preds = %17, %19
  %.not18 = icmp eq ptr %.pre, null
  br i1 %.not18, label %23, label %21

21:                                               ; preds = %._crit_edge
  %22 = load ptr, ptr %0, align 8, !tbaa !28
  store ptr %22, ptr %.pre, align 8, !tbaa !28
  br label %23

23:                                               ; preds = %21, %._crit_edge
  ret void
}